; Function Attrs: nounwind uwtable
define dso_local i32 @json_get_first_token(ptr noundef %0, i1 noundef zeroext %1) local_unnamed_addr #0 {
  %3 = alloca %struct.JsonLexContext, align 8
  call void @llvm.lifetime.start.p0(i64 120, ptr nonnull %3) #15
  %4 = tail call ptr @pg_detoast_datum_packed(ptr noundef %0) #15
  %5 = load i8, ptr %4, align 1
  %6 = zext i8 %5 to i32
  %7 = and i32 %6, 1
  %.not.i = icmp eq i32 %7, 0
  %8 = getelementptr inbounds nuw i8, ptr %4, i64 1
  %9 = icmp eq i8 %5, 1
  br i1 %9, label %10, label %18

10:                                               ; preds = %2
  %11 = load i8, ptr %8, align 1
  %12 = icmp eq i8 %11, 1
  %13 = and i8 %11, -2
  %14 = icmp eq i8 %13, 2
  %or.cond.i = or i1 %12, %14
  %15 = icmp eq i8 %11, 18
  %16 = select i1 %15, i64 16, i64 0
  %17 = select i1 %or.cond.i, i64 8, i64 %16
  br label %makeJsonLexContext.exit

18:                                               ; preds = %2
  br i1 %.not.i, label %23, label %19

19:                                               ; preds = %18
  %20 = lshr i32 %6, 1
  %21 = zext nneg i32 %20 to i64
  %22 = add nsw i64 %21, -1
  br label %makeJsonLexContext.exit

23:                                               ; preds = %18
  %24 = load i32, ptr %4, align 4
  %25 = lshr i32 %24, 2
  %26 = add nsw i32 %25, -4
  %27 = zext i32 %26 to i64
  br label %makeJsonLexContext.exit

makeJsonLexContext.exit:                          ; preds = %10, %19, %23
  %28 = phi i64 [ %17, %10 ], [ %22, %19 ], [ %27, %23 ]
  %29 = getelementptr inbounds nuw i8, ptr %4, i64 4
  %30 = select i1 %.not.i, ptr %29, ptr %8
  %31 = tail call i32 @GetDatabaseEncoding() #15
  %32 = call ptr @makeJsonLexContextCstringLen(ptr noundef nonnull %3, ptr noundef nonnull %30, i64 noundef %28, i32 noundef %31, i1 noundef zeroext false) #15
  %33 = call i32 @json_lex(ptr noundef nonnull %3) #15
  %34 = icmp eq i32 %33, 0
  br i1 %34, label %35, label %38

35:                                               ; preds = %makeJsonLexContext.exit
  %36 = getelementptr inbounds nuw i8, ptr %3, i64 52
  %37 = load i32, ptr %36, align 4
  br label %40

38:                                               ; preds = %makeJsonLexContext.exit
  br i1 %1, label %39, label %40

39:                                               ; preds = %38
  call void @json_errsave_error(i32 noundef %33, ptr noundef nonnull %3, ptr noundef null)
  br label %40

40:                                               ; preds = %38, %39, %35
  %.0 = phi i32 [ %37, %35 ], [ 0, %39 ], [ 0, %38 ]
  call void @llvm.lifetime.end.p0(i64 120, ptr nonnull %3) #15
  ret i32 %.0
}